(lp0
((I556
I373
tp1
(F615.0
F358.0
tp2
tp3
a(g1
(I570
I306
tp4
tp5
a(g1
(F514.0
F363.0
tp6
tp7
a(g1
(I513
I313
tp8
tp9
a(g1
(I604
I359
tp10
tp11
a((F154.0
F379.0
tp12
(I65
I386
tp13
tp14
a(g12
(F244.0
F375.0
tp15
tp16
a(g12
(I122
I315
tp17
tp18
a(g12
(I209
I425
tp19
tp20
a(g12
(I191
I388
tp21
tp22
a(g12
(I120
I364
tp23
tp24
a(g12
(I113
I428
tp25
tp26
a(g12
(I82
I338
tp27
tp28
a((I195
I227
tp29
(I142
I209
tp30
tp31
a(g29
(F125.0
F245.0
tp32
tp33
a(g29
(F220.0
F195.0
tp34
tp35
a(g29
(F232.0
F285.0
tp36
tp37
a(g29
(I231
I242
tp38
tp39
a(g29
(I132
I245
tp40
tp41
a(g29
(I255
I184
tp42
tp43
a(g29
(I284
I236
tp44
tp45
a((I962
I144
tp46
(I890
I109
tp47
tp48
a(g46
(I968
I88
tp49
tp50
a(g46
(I909
I151
tp51
tp52
a(g46
(F931.0
F126.0
tp53
tp54
a(g46
(I940
I190
tp55
tp56
a((I200
I21
tp57
(I221
I60
tp58
tp59
a(g57
(I179
I61
tp60
tp61
a(g57
(F208.0
F105.0
tp62
tp63
a(g57
(I144
I54
tp64
tp65
a(g57
(I138
I85
tp66
tp67
a(g57
(I254
I18
tp68
tp69
a(g57
(I146
I20
tp70
tp71
a(g32
g30
tp72
a(g32
(I35
I249
tp73
tp74
a(g32
g17
tp75
a(g32
(I75
I213
tp76
tp77
a(g32
g40
tp78
a(g38
(I228
I324
tp79
tp80
a(g38
g34
tp81
a(g38
g36
tp82
a(g38
(I283
I293
tp83
tp84
a(g38
g42
tp85
a(g38
g44
tp86
a(g64
g58
tp87
a(g64
(I83
I29
tp88
tp89
a(g64
g62
tp90
a(g64
(I108
I121
tp91
tp92
a(g64
g60
tp93
a(g64
g66
tp94
a(g64
g70
tp95
a((I531
I66
tp96
(I461
I33
tp97
tp98
a(g96
(I495
I22
tp99
tp100
a(g96
(I601
I43
tp101
tp102
a(g96
(I564
I33
tp103
tp104
a(g96
(I518
I117
tp105
tp106
a(g96
(I494
I66
tp107
tp108
a(g96
(I602
I76
tp109
tp110
a((I748
I427
tp111
(I745
I386
tp112
tp113
a(g111
(I667
I427
tp114
tp115
a(g111
(I705
I348
tp116
tp117
a((I664
I108
tp118
(I632
I137
tp119
tp120
a(g118
(I648
I66
tp121
tp122
a(g118
(I677
I25
tp123
tp124
a(g118
(I599
I140
tp125
tp126
a(g118
(I638
I36
tp127
tp128
a(g118
(I677
I162
tp129
tp130
a(g118
g109
tp131
a((I907
I24
tp132
g49
tp133
a(g132
(I837
I49
tp134
tp135
a(g132
(I864
I70
tp136
tp137
a(g132
(I971
I46
tp138
tp139
a(g132
g47
tp140
a(g132
(I924
I51
tp141
tp142
a(g47
g51
tp143
a(g47
g134
tp144
a(g47
g53
tp145
a(g47
g136
tp146
a(g47
g49
tp147
a(g47
(I823
I111
tp148
tp149
a(g47
(I844
I138
tp150
tp151
a(g47
g141
tp152
a((I349
I16
tp153
(F311.0
F52.0
tp154
tp155
a(g153
(I323
I95
tp156
tp157
a(g153
(I412
I41
tp158
tp159
a(g153
(I350
I48
tp160
tp161
a(g4
g8
tp162
a(g4
g2
tp163
a(g4
g6
tp164
a(g4
(I633
I309
tp165
tp166
a(g4
g10
tp167
a((I17
I338
tp168
g13
tp169
a(g168
(I23
I395
tp170
tp171
a(g168
(F45.0
F296.0
tp172
tp173
a(g168
g27
tp174
a((I456
I131
tp175
(I436
I186
tp176
tp177
a(g175
(I395
I162
tp178
tp179
a(g175
(I415
I111
tp180
tp181
a(g175
g105
tp182
a(g175
(I498
I167
tp183
tp184
a(g175
g107
tp185
a(g49
g51
tp186
a(g49
g53
tp187
a(g49
g138
tp188
a(g49
g141
tp189
a((I509
I244
tp190
(I471
I237
tp191
tp192
a(g190
g8
tp193
a(g190
(I531
I214
tp194
tp195
a(g190
(I429
I259
tp196
tp197
a((I547
I168
tp198
g125
tp199
a(g198
g183
tp200
a(g198
g105
tp201
a(g198
(I616
I188
tp202
tp203
a((I810
I344
tp204
g112
tp205
a(g204
(I846
I380
tp206
tp207
a(g204
(I801
I422
tp208
tp209
a(g204
(I811
I388
tp210
tp211
a(g204
(I879
I339
tp212
tp213
a(g23
g13
tp214
a(g23
g21
tp215
a(g23
(I71
I423
tp216
tp217
a(g23
g25
tp218
a(g23
g27
tp219
a(g23
g17
tp220
a((I943
I261
tp221
(F868.0
F290.0
tp222
tp223
a(g221
(I964
I289
tp224
tp225
a(g221
(I916
I230
tp226
tp227
a(g221
(I968
I228
tp228
tp229
a(g97
g99
tp230
a(g97
g107
tp231
a(g97
g158
tp232
a(g97
(F440.0
F59.0
tp233
tp234
a((I421
I319
tp235
(I455
I378
tp236
tp237
a(g235
(I386
I297
tp238
tp239
a(g235
(F424.0
F367.0
tp240
tp241
a(g112
g116
tp242
a(g112
(F710.0
F341.0
tp243
tp244
a(g112
(I670
I337
tp245
tp246
a(g112
g114
tp247
a(g79
g15
tp248
a(g79
(I245
I410
tp249
tp250
a(g79
g21
tp251
a(g79
g36
tp252
a(g79
g83
tp253
a(g79
(I304
I338
tp254
tp255
a(g91
(I160
I121
tp256
tp257
a(g91
g66
tp258
a(g91
(I79
I157
tp259
tp260
a((F48.0
F34.0
tp261
(I25
I21
tp262
tp263
a(g261
g66
tp264
a(g261
(I22
I78
tp265
tp266
a(g261
g88
tp267
a(g123
g127
tp268
a(g123
g101
tp269
a(g123
g121
tp270
a(g101
g121
tp271
a(g101
g103
tp272
a(g101
g127
tp273
a(g101
g109
tp274
a(g262
g265
tp275
a(g262
g88
tp276
a(g13
g172
tp277
a(g13
g170
tp278
a(g13
g216
tp279
a(g13
g25
tp280
a(g13
g27
tp281
a((I814
I266
tp282
(I803
I224
tp283
tp284
a(g282
g222
tp285
a(g282
(F778.0
F251.0
tp286
tp287
a(g282
(I846
I253
tp288
tp289
a(g282
(I845
I216
tp290
tp291
a((I277
I117
tp292
g154
tp293
a(g292
g62
tp294
a(g292
g58
tp295
a(g292
g42
tp296
a(g88
g265
tp297
a(g88
g66
tp298
a(g88
g70
tp299
a(g134
g136
tp300
a(g134
g148
tp301
a(g134
g150
tp302
a(g134
g141
tp303
a(g222
g206
tp304
a(g222
g290
tp305
a(g222
g286
tp306
a(g222
g226
tp307
a(g222
g212
tp308
a(g222
g288
tp309
a(g150
(I787
I95
tp310
tp311
a(g150
g51
tp312
a(g150
(I804
I164
tp313
tp314
a(g150
g53
tp315
a(g150
g136
tp316
a(g150
g148
tp317
a(g233
g99
tp318
a(g233
g158
tp319
a(g233
g180
tp320
a(g233
g160
tp321
a(g233
g107
tp322
a(g141
g53
tp323
a(g141
g136
tp324
a(g141
g138
tp325
a(g73
g172
tp326
a(g73
g76
tp327
a((I661
I218
tp328
(I610
I263
tp329
tp330
a(g328
(I598
I225
tp331
tp332
a(g172
g17
tp333
a(g172
g27
tp334
a(g172
g76
tp335
a(g6
g8
tp336
a(g6
g236
tp337
a(g6
g10
tp338
a(g6
g240
tp339
a((I970
I343
tp340
(I945
I418
tp341
tp342
a(g340
(I942
I382
tp343
tp344
a(g340
(I922
I338
tp345
tp346
a(g136
g53
tp347
a(g136
g148
tp348
a(g286
g243
tp349
a(g286
(I715
I216
tp350
tp351
a(g286
(I721
I251
tp352
tp353
a(g286
g288
tp354
a(g40
g30
tp355
a(g40
g76
tp356
a(g40
g17
tp357
a(g191
(I419
I225
tp358
tp359
a(g191
g8
tp360
a(g191
g196
tp361
a((I377
I201
tp362
g176
tp363
a(g362
g196
tp364
a(g362
g178
tp365
a(g362
g358
tp366
a(g362
(I337
I141
tp367
tp368
a(g362
(I349
I186
tp369
tp370
a(g206
g210
tp371
a(g206
(I894
I424
tp372
tp373
a(g206
(I858
I420
tp374
tp375
a(g206
g212
tp376
a(g206
g345
tp377
a(g249
g21
tp378
a(g249
g15
tp379
a(g249
(I168
I410
tp380
tp381
a(g249
g19
tp382
a((I698
I90
tp383
(I738
I111
tp384
tp385
a(g383
g310
tp386
a((F334.0
F371.0
tp387
(I321
I309
tp388
tp389
a(g387
g15
tp390
a(g387
g254
tp391
a(g387
g240
tp392
a(g105
g183
tp393
a(g105
g125
tp394
a(g105
g107
tp395
a(g245
g2
tp396
a(g245
g243
tp397
a(g245
(I691
I313
tp398
tp399
a(g245
g116
tp400
a(g245
g165
tp401
a(g245
g10
tp402
a(g352
g350
tp403
a(g352
(I717
I184
tp404
tp405
a(g288
g290
tp406
a(g288
g283
tp407
a(g288
g226
tp408
a(g30
g256
tp409
a(g30
g259
tp410
a(g30
g76
tp411
a(g138
g53
tp412
a(g236
g8
tp413
a(g236
g240
tp414
a(g388
g254
tp415
a(g256
g62
tp416
a(g256
g58
tp417
a(g256
g259
tp418
a(g103
g99
tp419
a(g103
g127
tp420
a(g103
g107
tp421
a(g103
g109
tp422
a((I745
I75
tp423
g384
tp424
a(g423
(I782
I49
tp425
tp426
a(g423
(I737
I32
tp427
tp428
a(g34
g62
tp429
a(g34
g42
tp430
a(g34
g36
tp431
a(g34
g44
tp432
a(g202
g119
tp433
a(g202
g329
tp434
a(g202
g125
tp435
a(g202
g331
tp436
a(g202
g129
tp437
a(g224
g226
tp438
a(g224
g228
tp439
a(g62
g58
tp440
a(g62
g60
tp441
a(g62
g66
tp442
a(g358
g369
tp443
a(g358
g238
tp444
a(g358
g196
tp445
a(g148
g310
tp446
a(g148
g384
tp447
a(g107
g158
tp448
a(g107
g99
tp449
a(g119
g121
tp450
a(g119
g125
tp451
a(g119
g129
tp452
a(g119
g109
tp453
a(g183
g176
tp454
a(g343
g212
tp455
a(g343
g341
tp456
a(g343
g372
tp457
a(g343
g345
tp458
a(g283
g290
tp459
a(g259
g76
tp460
a(g36
g15
tp461
a(g36
g83
tp462
a(g36
g44
tp463
a(g36
g254
tp464
a(g83
g44
tp465
a(g367
g178
tp466
a(g367
g180
tp467
a(g367
g154
tp468
a(g367
g156
tp469
a(g367
g369
tp470
a(g331
g329
tp471
a(g331
g125
tp472
a(g345
g212
tp473
a(g345
g341
tp474
a(g176
g178
tp475
a(g176
g180
tp476
a(g176
g369
tp477
a(g99
g158
tp478
a(g60
g58
tp479
a(g60
g66
tp480
a(g60
g68
tp481
a(g60
g70
tp482
a(g170
g216
tp483
a(g170
g27
tp484
a(g178
g180
tp485
a(g178
g369
tp486
a((I24
I133
tp487
g265
tp488
a(g156
g154
tp489
a(g156
g160
tp490
a(g384
g310
tp491
a(g384
g425
tp492
a(g384
g427
tp493
a(g384
g129
tp494
a(g109
g121
tp495
a(g109
g125
tp496
a(g109
g127
tp497
a(g329
g165
tp498
a(g290
g53
tp499
a(g290
g226
tp500
a(g196
g238
tp501
a(g158
g180
tp502
a(g158
g160
tp503
a((I336
I419
tp504
g254
tp505
a(g42
g44
tp506
a(g125
g121
tp507
a(g125
g129
tp508
a(g427
g425
tp509
a(g15
g19
tp510
a(g15
g380
tp511
a(g15
g21
tp512
a(g15
g254
tp513
a(g51
g53
tp514
a(g51
g55
tp515
a(g210
g212
tp516
a(g210
g208
tp517
a(g2
g398
tp518
a(g2
g116
tp519
a(g2
g165
tp520
a(g2
g10
tp521
a(g21
g19
tp522
a(g21
g25
tp523
a(g21
g380
tp524
a(g374
g341
tp525
a(g374
g208
tp526
a(g374
g372
tp527
a(g374
g212
tp528
a(g25
g216
tp529
a(g25
g380
tp530
a(g27
g216
tp531
a(g27
g17
tp532
a(g380
g19
tp533
a(g238
g240
tp534
a(g372
g341
tp535
a(g372
g212
tp536
a(g243
g398
tp537
a(g243
g116
tp538
a(g243
g165
tp539
a(g350
g404
tp540
a(g127
g121
tp541
a(g228
g226
tp542
a(g58
g154
tp543
a(g58
g66
tp544
a(g58
g68
tp545
a(g58
g70
tp546
a(g404
g129
tp547
a(g398
g165
tp548
a(g398
g116
tp549
a(g116
g165
tp550
a(g10
g165
tp551
a(g70
g66
tp552
a(g160
g154
tp553
a(g55
g53
tp554
a(g154
g68
tp555
a.