(lp0
(dp1
(I600
I350
tp2
F1.605416906071913
s(I550
I50
tp3
F2.722548916536213
s(I700
I350
tp4
F2.087972467622989
s(I400
I350
tp5
F2.236864061183588
s(I850
I150
tp6
F2.0442078506338595
s(I700
I150
tp7
F2.2958913547889956
s(I950
I100
tp8
F2.010709861314802
s(I450
I250
tp9
F2.308452599601213
s(I350
I400
tp10
F2.2299524939869495
s(I0
I350
tp11
F1.8843608123352875
s(I0
I200
tp12
F1.594371877560563
s(I550
I400
tp13
F1.2704742069637902
s(I200
I100
tp14
F3.125402854372691
s(I600
I200
tp15
F2.360712199570053
s(I350
I300
tp16
F2.3611954353882076
s(I450
I0
tp17
F2.1049420790232043
s(I450
I350
tp18
F1.879454902846619
s(I550
I350
tp19
F1.7840341277891256
s(I400
I150
tp20
F2.764312145892674
s(I300
I100
tp21
F3.163029463339682
s(I300
I400
tp22
F2.3681666517060993
s(I900
I100
tp23
F1.9760071147367009
s(I950
I350
tp24
F1.9786251750852186
s(I900
I350
tp25
F1.9983969656632061
s(I150
I350
tp26
F3.0137838662692706
s(I800
I50
tp27
F2.1215901183398884
s(I500
I350
tp28
F1.6930957966598323
s(I350
I150
tp29
F2.878687323597071
s(I450
I150
tp30
F2.580254408691244
s(I550
I150
tp31
F2.631673182489524
s(I800
I350
tp32
F2.043862387343695
s(I800
I300
tp33
F2.011811167125792
s(I150
I0
tp34
F1.723174810233099
s(I700
I300
tp35
F2.1049420790232043
s(I800
I250
tp36
F2.041504037132234
s(I500
I300
tp37
F2.109771366159644
s(I650
I400
tp38
F1.9867994946621366
s(I700
I0
tp39
F1.1271364332755782
s(I850
I100
tp40
F2.2136748086541083
s(I850
I250
tp41
F1.9997079543470053
s(I750
I300
tp42
F2.1049420790232043
s(I900
I300
tp43
F2.032693144102781
s(I100
I300
tp44
F2.1927994266497643
s(I400
I250
tp45
F2.2108175193760906
s(I900
I50
tp46
F2.0259755858967363
s(I200
I400
tp47
F2.5993362914943514
s(I900
I0
tp48
F1.9185007428192526
s(I200
I250
tp49
F2.8178432932120407
s(I900
I150
tp50
F2.055184671616418
s(I700
I100
tp51
F2.280857218275435
s(I950
I250
tp52
F1.989765678376263
s(I600
I250
tp53
F2.1049420790232043
s(I100
I50
tp54
F4.2027137455990315
s(I350
I200
tp55
F2.6627417947361725
s(I50
I250
tp56
F1.938889166736261
s(I0
I0
tp57
F5.219834279290195
s(I600
I300
tp58
F2.220895307482242
s(I400
I50
tp59
F3.381885059382972
s(I850
I300
tp60
F2.06478766236054
s(I50
I150
tp61
F2.2637724948642517
s(I500
I150
tp62
F2.730677905537713
s(I900
I200
tp63
F2.0148874070729343
s(I850
I400
tp64
F2.0207206357916796
s(I300
I250
tp65
F2.5587834579090973
s(I400
I200
tp66
F2.706949909011006
s(I0
I300
tp67
F1.8843608123352877
s(I100
I250
tp68
F2.944154440200874
s(I800
I200
tp69
F2.1036956180675896
s(I950
I50
tp70
F1.9865630283406739
s(I150
I200
tp71
F2.970466655572044
s(I650
I0
tp72
F1.2982591213883459
s(I350
I50
tp73
F3.3516409683339603
s(I750
I0
tp74
F1.4050924586465179
s(I550
I100
tp75
F2.6599375596327093
s(I650
I250
tp76
F2.1049420790232047
s(I200
I300
tp77
F2.8698900239367164
s(I200
I0
tp78
F1.518051057907496
s(I950
I400
tp79
F1.9760071147367009
s(I950
I0
tp80
F1.699466947119542
s(I400
I0
tp81
F2.1049420790232043
s(I500
I200
tp82
F2.3019760335278336
s(I300
I200
tp83
F2.5279680089412184
s(I650
I200
tp84
F2.195447545030138
s(I50
I300
tp85
F1.8843608123352875
s(I400
I100
tp86
F3.1433135410967976
s(I150
I250
tp87
F2.9722070216542047
s(I450
I300
tp88
F2.1500495686777086
s(I300
I50
tp89
F3.275183230096877
s(I700
I200
tp90
F2.134596620622547
s(I750
I250
tp91
F2.054247013171064
s(I100
I150
tp92
F3.454975576874695
s(I150
I300
tp93
F2.994183509702677
s(I350
I100
tp94
F3.1855195640656184
s(I50
I350
tp95
F1.8843608123352875
s(I950
I200
tp96
F1.9874003758971905
s(I450
I400
tp97
F1.5482328143652235
s(I600
I400
tp98
F1.3084197748957827
s(I950
I150
tp99
F2.0492369226972222
s(I700
I400
tp100
F2.080012226980985
s(I0
I400
tp101
F1.8843608123352875
s(I250
I100
tp102
F3.1151350867825904
s(I850
I50
tp103
F1.986580005634223
s(I850
I200
tp104
F2.127203200422286
s(I850
I350
tp105
F1.9760071147367009
s(I100
I350
tp106
F1.8843608123352877
s(I800
I0
tp107
F1.9760071147367009
s(I600
I0
tp108
F0.915575067188536
s(I200
I150
tp109
F2.970466655572044
s(I300
I0
tp110
F1.700099840288011
s(I0
I50
tp111
F4.653857727136929
s(I100
I400
tp112
F1.8843608123352875
s(I150
I100
tp113
F3.454975576874695
s(I800
I400
tp114
F1.9984623813788507
s(I450
I200
tp115
F2.4910400560475674
s(I750
I350
tp116
F2.1049420790232043
s(I250
I50
tp117
F3.2077496794683724
s(I700
I50
tp118
F2.178018655644521
s(I900
I400
tp119
F1.9804977899456027
s(I550
I200
tp120
F2.336962610754496
s(I750
I100
tp121
F2.1847128202441537
s(I50
I50
tp122
F5.097611977874871
s(I650
I50
tp123
F2.4130857064337192
s(I50
I400
tp124
F1.8843608123352875
s(I650
I350
tp125
F1.9967900109448107
s(I300
I350
tp126
F2.5654925807257207
s(I0
I100
tp127
F2.363289377527166
s(I500
I0
tp128
F1.6350998402880113
s(I250
I200
tp129
F2.6712694279566604
s(I800
I100
tp130
F2.280033849773637
s(I350
I0
tp131
F2.1049420790232043
s(I950
I300
tp132
F1.9493533385669464
s(I100
I100
tp133
F3.841379706354041
s(I550
I0
tp134
F1.099195849198597
s(I600
I100
tp135
F2.560262126744968
s(I850
I0
tp136
F1.9106910497723393
s(I200
I200
tp137
F2.793513548841575
s(I350
I350
tp138
F2.296815291596469
s(I100
I0
tp139
F2.7532893775271656
s(I400
I400
tp140
F1.974354366067265
s(I0
I250
tp141
F1.8843608123352875
s(I250
I250
tp142
F2.70773757704522
s(I300
I300
tp143
F2.36609189038924
s(I50
I100
tp144
F4.2027137455990315
s(I500
I400
tp145
F1.190949544052686
s(I900
I250
tp146
F2.087759419704856
s(I700
I250
tp147
F2.1049420790232043
s(I550
I300
tp148
F2.1593754191244035
s(I650
I150
tp149
F2.3921837655815845
s(I600
I50
tp150
F2.577825936303584
s(I50
I0
tp151
F4.718857727136929
s(I500
I50
tp152
F2.912739757044653
s(I450
I50
tp153
F3.147577725212101
s(I150
I400
tp154
F2.839331419454031
s(I750
I200
tp155
F2.1340434885652275
s(I750
I50
tp156
F2.128218490688135
s(I500
I100
tp157
F2.8380496411345892
s(I250
I300
tp158
F2.7235349965983096
s(I400
I300
tp159
F2.394392388826132
s(I0
I150
tp160
F1.4430387400529876
s(I250
I150
tp161
F2.7453856786345066
s(I750
I400
tp162
F2.075529072813869
s(I500
I250
tp163
F2.0567250953530607
s(I650
I300
tp164
F2.1049420790232043
s(I200
I350
tp165
F2.870819951334674
s(I150
I50
tp166
F3.628772494864252
s(I200
I50
tp167
F3.2242422530043413
s(I50
I200
tp168
F1.9948030236878749
s(I600
I150
tp169
F2.4858314679457294
s(I550
I250
tp170
F2.1049420790232043
s(I450
I100
tp171
F3.009049960030631
s(I650
I100
tp172
F2.409598738352926
s(I800
I150
tp173
F2.003837314174432
s(I350
I250
tp174
F2.5164248851647177
s(I150
I150
tp175
F3.2146076405499935
s(I100
I200
tp176
F3.125402854372691
s(I250
I350
tp177
F2.6542148876081715
s(I250
I0
tp178
F1.518051057907496
s(I250
I400
tp179
F2.680914280174671
s(I300
I150
tp180
F2.945075336119922
s(I750
I150
tp181
F2.259870926507216
sa(lp182
(I850
I20
tp183
a(I100
I425
tp184
a(I700
I425
tp185
a(I400
I20
tp186
aa(I20
I20
tp187
a.