(lp0
(lp1
(I556
I373
tp2
aS'g1'
p3
a(I231
I242
tp4
aS'g2'
p5
a(I844
I138
tp6
aS'g0'
p7
a(I748
I427
tp8
aS'g3'
p9
a(I231
I242
tp10
ag3
aa(lp11
((I556
I373
tp12
S'None'
p13
tp14
a((I556
I373
tp15
g3
tp16
a((I231
I242
tp17
g13
tp18
a((I231
I242
tp19
g5
tp20
a((I844
I138
tp21
g13
tp22
a((I844
I138
tp23
g7
tp24
a((I748
I427
tp25
g13
tp26
a((I748
I427
tp27
g9
tp28
a((I231
I242
tp29
g13
tp30
a((I231
I242
tp31
g3
tp32
aa(dp33
g9
(I70
I2
tp34
sg5
(I50
I2
tp35
sg3
(I40
I2
tp36
sg7
(I0
I2
tp37
sa.