(lp0
(dp1
(I556
I373
tp2
S'r1'
p3
s(I844
I138
tp4
S'r3'
p5
s(I748
I427
tp6
S'r4'
p7
s(I231
I242
tp8
S'r2'
p9
sa(dp10
S'g3'
p11
(I70
I2
tp12
sS'g2'
p13
(I50
I2
tp14
sS'g1'
p15
(I40
I2
tp16
sS'g0'
p17
(I0
I2
tp18
sa.